; Function Attrs: nofree norecurse nosync nounwind memory(readwrite, inaccessiblemem: none) uwtable
define void @Gia_ManInvertPos(ptr noundef readonly captures(none) %0) local_unnamed_addr #1 {
  %2 = getelementptr i8, ptr %0, i64 32
  %3 = getelementptr i8, ptr %0, i64 16
  %4 = getelementptr i8, ptr %0, i64 72
  %.val79 = load i32, ptr %3, align 8
  %.val810 = load ptr, ptr %4, align 8
  %5 = getelementptr i8, ptr %.val810, i64 4
  %.val8.val11 = load i32, ptr %5, align 4
  %6 = icmp sgt i32 %.val8.val11, %.val79
  br i1 %6, label %.lr.ph, label %.critedge

.lr.ph:                                           ; preds = %1, %7
  %indvars.iv = phi i64 [ %indvars.iv.next, %7 ], [ 0, %1 ]
  %.val813 = phi ptr [ %.val8, %7 ], [ %.val810, %1 ]
  %.val = load ptr, ptr %2, align 8
  %.not = icmp eq ptr %.val, null
  br i1 %.not, label %.critedge, label %7

7:                                                ; preds = %.lr.ph
  %8 = getelementptr i8, ptr %.val813, i64 8
  %.val6.val = load ptr, ptr %8, align 8
  %9 = getelementptr inbounds nuw i32, ptr %.val6.val, i64 %indvars.iv
  %10 = load i32, ptr %9, align 4
  %11 = sext i32 %10 to i64
  %12 = getelementptr inbounds %struct.Gia_Obj_t_, ptr %.val, i64 %11
  %13 = load i64, ptr %12, align 4
  %14 = xor i64 %13, 536870912
  store i64 %14, ptr %12, align 4
  %indvars.iv.next = add nuw nsw i64 %indvars.iv, 1
  %.val7 = load i32, ptr %3, align 8
  %.val8 = load ptr, ptr %4, align 8
  %15 = getelementptr i8, ptr %.val8, i64 4
  %.val8.val = load i32, ptr %15, align 4
  %16 = sub nsw i32 %.val8.val, %.val7
  %17 = sext i32 %16 to i64
  %18 = icmp slt i64 %indvars.iv.next, %17
  br i1 %18, label %.lr.ph, label %.critedge, !llvm.loop !62

.critedge:                                        ; preds = %.lr.ph, %7, %1
  ret void
}